; ModuleID = '47/2889.c'
source_filename = "47/2889.c"
target datalayout = "e-m:e-p270:32:32-p271:32:32-p272:64:64-i64:64-f80:128-n8:16:32:64-S128"
target triple = "x86_64-pc-linux-gnu"

@.str = private unnamed_addr constant [3 x i8] c"%d\00", align 1
@.str.1 = private unnamed_addr constant [4 x i8] c" %d\00", align 1

; Function Attrs: noinline nounwind uwtable
define dso_local i32 @main() #0 {
  %1 = alloca i32, align 4
  %2 = alloca i32, align 4
  %3 = alloca i32, align 4
  %4 = alloca [300 x i32], align 16
  %5 = alloca [300 x i32], align 16
  %6 = alloca i32*, align 8
  %7 = alloca i32*, align 8
  store i32 0, i32* %1, align 4
  %8 = getelementptr inbounds [300 x i32], [300 x i32]* %4, i64 0, i64 0
  store i32* %8, i32** %6, align 8
  %9 = getelementptr inbounds [300 x i32], [300 x i32]* %5, i64 0, i64 0
  store i32* %9, i32** %7, align 8
  %10 = call i32 (i8*, ...) @__isoc99_scanf(i8* getelementptr inbounds ([3 x i8], [3 x i8]* @.str, i64 0, i64 0), i32* %2)
  store i32 0, i32* %3, align 4
  br label %11

11:                                               ; preds = %25, %0
  %12 = load i32, i32* %3, align 4
  %13 = load i32, i32* %2, align 4
  %14 = icmp slt i32 %12, %13
  br i1 %14, label %15, label %28

15:                                               ; preds = %11
  %16 = load i32*, i32** %6, align 8
  %17 = call i32 (i8*, ...) @__isoc99_scanf(i8* getelementptr inbounds ([3 x i8], [3 x i8]* @.str, i64 0, i64 0), i32* %16)
  %18 = load i32*, i32** %6, align 8
  %19 = load i32, i32* %18, align 4
  %20 = load i32*, i32** %7, align 8
  store i32 %19, i32* %20, align 4
  %21 = load i32*, i32** %7, align 8
  %22 = getelementptr inbounds i32, i32* %21, i32 1
  store i32* %22, i32** %7, align 8
  %23 = load i32*, i32** %6, align 8
  %24 = getelementptr inbounds i32, i32* %23, i32 1
  store i32* %24, i32** %6, align 8
  br label %25

25:                                               ; preds = %15
  %26 = load i32, i32* %3, align 4
  %27 = add nsw i32 %26, 1
  store i32 %27, i32* %3, align 4
  br label %11

28:                                               ; preds = %11
  %29 = getelementptr inbounds [300 x i32], [300 x i32]* %4, i64 0, i64 0
  store i32* %29, i32** %6, align 8
  %30 = getelementptr inbounds [300 x i32], [300 x i32]* %5, i64 0, i64 0
  store i32* %30, i32** %7, align 8
  store i32 0, i32* %3, align 4
  store i32 0, i32* %3, align 4
  br label %31

31:                                               ; preds = %47, %28
  %32 = load i32, i32* %3, align 4
  %33 = load i32, i32* %2, align 4
  %34 = icmp slt i32 %32, %33
  br i1 %34, label %35, label %52

35:                                               ; preds = %31
  %36 = load i32*, i32** %7, align 8
  %37 = load i32, i32* %2, align 4
  %38 = sext i32 %37 to i64
  %39 = getelementptr inbounds i32, i32* %36, i64 %38
  %40 = getelementptr inbounds i32, i32* %39, i64 -1
  %41 = load i32, i32* %3, align 4
  %42 = sext i32 %41 to i64
  %43 = sub i64 0, %42
  %44 = getelementptr inbounds i32, i32* %40, i64 %43
  %45 = load i32, i32* %44, align 4
  %46 = load i32*, i32** %6, align 8
  store i32 %45, i32* %46, align 4
  br label %47

47:                                               ; preds = %35
  %48 = load i32, i32* %3, align 4
  %49 = add nsw i32 %48, 1
  store i32 %49, i32* %3, align 4
  %50 = load i32*, i32** %6, align 8
  %51 = getelementptr inbounds i32, i32* %50, i32 1
  store i32* %51, i32** %6, align 8
  br label %31

52:                                               ; preds = %31
  %53 = getelementptr inbounds [300 x i32], [300 x i32]* %4, i64 0, i64 0
  store i32* %53, i32** %6, align 8
  %54 = load i32*, i32** %6, align 8
  %55 = load i32, i32* %54, align 4
  %56 = call i32 (i8*, ...) @printf(i8* getelementptr inbounds ([3 x i8], [3 x i8]* @.str, i64 0, i64 0), i32 %55)
  store i32 1, i32* %3, align 4
  br label %57

57:                                               ; preds = %66, %52
  %58 = load i32, i32* %3, align 4
  %59 = load i32, i32* %2, align 4
  %60 = icmp slt i32 %58, %59
  br i1 %60, label %61, label %69

61:                                               ; preds = %57
  %62 = load i32*, i32** %6, align 8
  %63 = getelementptr inbounds i32, i32* %62, i32 1
  store i32* %63, i32** %6, align 8
  %64 = load i32, i32* %63, align 4
  %65 = call i32 (i8*, ...) @printf(i8* getelementptr inbounds ([4 x i8], [4 x i8]* @.str.1, i64 0, i64 0), i32 %64)
  br label %66

66:                                               ; preds = %61
  %67 = load i32, i32* %3, align 4
  %68 = add nsw i32 %67, 1
  store i32 %68, i32* %3, align 4
  br label %57

69:                                               ; preds = %57
  ret i32 0
}

declare dso_local i32 @__isoc99_scanf(i8*, ...) #1

declare dso_local i32 @printf(i8*, ...) #1


!llvm.module.flags = !{!0}
!llvm.ident = !{!1}

!0 = !{i32 1, !"wchar_size", i32 4}
!1 = !{!"clang version 10.0.0-4ubuntu1 "}
